target datalayout = "e-m:e-p270:32:32-p271:32:32-p272:64:64-i64:64-i128:128-f80:128-n8:16:32:64-S128"
target triple = "x86_64-pc-linux-gnu"

%struct.png_color_8_struct = type { i8, i8, i8, i8, i8 }
%struct.png_color_16_struct = type { i8, i16, i16, i16, i16 }
%struct.png_colorspace = type { i32, %struct.png_xy, %struct.png_XYZ, i16, i16 }
%struct.png_xy = type { i32, i32, i32, i32, i32, i32, i32, i32 }
%struct.png_XYZ = type { i32, i32, i32, i32, i32, i32, i32, i32, i32 }
%struct.png_info_def = type { i32, i32, i32, i64, ptr, i16, i16, i8, i8, i8, i8, i8, i8, i8, i8, [8 x i8], %struct.png_colorspace, ptr, ptr, i32, i32, i32, ptr, %struct.png_time_struct, %struct.png_color_8_struct, ptr, %struct.png_color_16_struct, %struct.png_color_16_struct, i32, i32, i8, i32, i32, i8, i32, ptr, ptr, ptr, ptr, i32, i32, ptr, ptr, i8, i8, i32, ptr, i32, ptr, i32, i8, ptr, ptr, ptr }
%struct.png_time_struct = type { i16, i8, i8, i8, i8, i8 }

; Function Attrs: nounwind uwtable
define i32 @png_get_pHYs(ptr noalias noundef %0, ptr noalias noundef %1, ptr noundef %2, ptr noundef %3, ptr noundef %4) #0 {
  %6 = alloca ptr, align 8
  %7 = alloca ptr, align 8
  %8 = alloca ptr, align 8
  %9 = alloca ptr, align 8
  %10 = alloca ptr, align 8
  %11 = alloca i32, align 4
  store ptr %0, ptr %6, align 8
  store ptr %1, ptr %7, align 8
  store ptr %2, ptr %8, align 8
  store ptr %3, ptr %9, align 8
  store ptr %4, ptr %10, align 8
  store i32 0, ptr %11, align 4
  %12 = load ptr, ptr %6, align 8
  %13 = icmp ne ptr %12, null
  br i1 %13, label %14, label %55

14:                                               ; preds = %5
  %15 = load ptr, ptr %7, align 8
  %16 = icmp ne ptr %15, null
  br i1 %16, label %17, label %55

17:                                               ; preds = %14
  %18 = load ptr, ptr %7, align 8
  %19 = getelementptr inbounds %struct.png_info_def, ptr %18, i32 0, i32 2
  %20 = load i32, ptr %19, align 8
  %21 = and i32 %20, 128
  %22 = icmp ne i32 %21, 0
  br i1 %22, label %23, label %55

23:                                               ; preds = %17
  %24 = load ptr, ptr %8, align 8
  %25 = icmp ne ptr %24, null
  br i1 %25, label %26, label %33

26:                                               ; preds = %23
  %27 = load ptr, ptr %7, align 8
  %28 = getelementptr inbounds %struct.png_info_def, ptr %27, i32 0, i32 31
  %29 = load i32, ptr %28, align 8
  %30 = load ptr, ptr %8, align 8
  store i32 %29, ptr %30, align 4
  %31 = load i32, ptr %11, align 4
  %32 = or i32 %31, 128
  store i32 %32, ptr %11, align 4
  br label %33

33:                                               ; preds = %26, %23
  %34 = load ptr, ptr %9, align 8
  %35 = icmp ne ptr %34, null
  br i1 %35, label %36, label %43

36:                                               ; preds = %33
  %37 = load ptr, ptr %7, align 8
  %38 = getelementptr inbounds %struct.png_info_def, ptr %37, i32 0, i32 32
  %39 = load i32, ptr %38, align 4
  %40 = load ptr, ptr %9, align 8
  store i32 %39, ptr %40, align 4
  %41 = load i32, ptr %11, align 4
  %42 = or i32 %41, 128
  store i32 %42, ptr %11, align 4
  br label %43

43:                                               ; preds = %36, %33
  %44 = load ptr, ptr %10, align 8
  %45 = icmp ne ptr %44, null
  br i1 %45, label %46, label %54

46:                                               ; preds = %43
  %47 = load ptr, ptr %7, align 8
  %48 = getelementptr inbounds %struct.png_info_def, ptr %47, i32 0, i32 33
  %49 = load i8, ptr %48, align 8
  %50 = zext i8 %49 to i32
  %51 = load ptr, ptr %10, align 8
  store i32 %50, ptr %51, align 4
  %52 = load i32, ptr %11, align 4
  %53 = or i32 %52, 128
  store i32 %53, ptr %11, align 4
  br label %54

54:                                               ; preds = %46, %43
  br label %55

55:                                               ; preds = %54, %17, %14, %5
  %56 = load i32, ptr %11, align 4
  ret i32 %56
}